(lp0
ccopy_reg
_reconstructor
p1
(cpandas.core.frame
DataFrame
p2
c__builtin__
object
p3
Ntp4
Rp5
(dp6
S'_metadata'
p7
(lp8
sS'_typ'
p9
S'dataframe'
p10
sS'_data'
p11
g1
(cpandas.core.internals
BlockManager
p12
g3
Ntp13
Rp14
((lp15
cpandas.core.index
_new_Index
p16
(cpandas.core.index
Index
p17
(dp18
S'data'
p19
cnumpy.core.multiarray
_reconstruct
p20
(cnumpy
ndarray
p21
(I0
tp22
S'b'
p23
tp24
Rp25
(I1
(I21
tp26
cnumpy
dtype
p27
(S'O8'
p28
I0
I1
tp29
Rp30
(I3
S'|'
p31
NNNI-1
I-1
I63
tp32
bI00
(lp33
S'\xe5\x9c\xb0\xe8\xb4\xa8\xe7\xb1\xbb\xe5\x88\xab'
p34
aS'2-3'
p35
aS'2-4'
p36
aS'4-2'
p37
aS'4-4'
p38
aS'4-5'
p39
aS'4-8'
p40
aS'4-9'
p41
aS'4-10'
p42
aS'4-11'
p43
aS'7-2-1'
p44
aS'7-2-2'
p45
aS'9-1'
p46
aS'9-2-1'
p47
aS'9-2-2'
p48
aS'9-3'
p49
aS'12-1'
p50
aS'12-2-1'
p51
aS'12-2-2'
p52
aS'12-3'
p53
aS'12-4'
p54
atp55
bsS'name'
p56
Nstp57
Rp58
ag16
(cpandas.core.index
Int64Index
p59
(dp60
g19
g20
(g21
(I0
tp61
g23
tp62
Rp63
(I1
(I7
tp64
g27
(S'i8'
p65
I0
I1
tp66
Rp67
(I3
S'<'
p68
NNNI-1
I-1
I0
tp69
bI00
S'\x00\x00\x00\x00\x00\x00\x00\x00\x01\x00\x00\x00\x00\x00\x00\x00\x02\x00\x00\x00\x00\x00\x00\x00\x03\x00\x00\x00\x00\x00\x00\x00\x04\x00\x00\x00\x00\x00\x00\x00\x05\x00\x00\x00\x00\x00\x00\x00\x06\x00\x00\x00\x00\x00\x00\x00'
p70
tp71
bsg56
Nstp72
Rp73
a(lp74
g20
(g21
(I0
tp75
g23
tp76
Rp77
(I1
(I20
I7
tp78
g27
(S'f8'
p79
I0
I1
tp80
Rp81
(I3
S'<'
p82
NNNI-1
I-1
I0
tp83
bI00
S'\x00\x00\x00\x00\x00\x001@\x00\x00\x00\x00\x00\x00\x12@\x00\x00\x00\x00\x00\x00\x10@\xcd\xcc\xcc\xcc\xcc\xcc\xe4?\xcd\xcc\xcc\xcc\xcc\xcc\xe4?\xfa~j\xbct\x93h?\x00\x00\x00\x00\x00\x00$@\x00\x00\x00\x00\x00\x802@\x00\x00\x00\x00\x00\x002@\x00\x00\x00\x00\x00\x00\x16@\x00\x00\x00\x00\x00\x00\xe0?\x00\x00\x00\x00\x00\x00\xe0?\x00\x00\x00\x00\x00\x00\x0c@\x00\x00\x00\x00\x00\x004@\x00\x00\x00\x00\x00\x003@\x00\x00\x00\x00\x00\x00.@\x00\x00\x00\x00\x00\x00.@{\x14\xaeG\xe1z\xd4?\x9a\x99\x99\x99\x99\x99\xc9?{\x14\xaeG\xe1zt?\x00\x00\x00\x00\x00\x009@\x00\x00\x00\x00\x00\x002@\x00\x00\x00\x00\x00\x00 @\x00\x00\x00\x00\x00\x00\x12@\xe1z\x14\xaeG\xe1\xda?ffffff\xe6?{\x14\xaeG\xe1zt?\x00\x00\x00\x00\x00\x002@\x00\x00\x00\x00\x00\x003@\x00\x00\x00\x00\x00\x004@\x00\x00\x00\x00\x00\x00\x1a@{\x14\xaeG\xe1z\xd4?\xb8\x1e\x85\xebQ\xb8\xde?\x00\x00\x00\x00\x00\x00\x12@\x00\x00\x00\x00\x00\x006@\x00\x00\x00\x00\x00\x803@\x00\x00\x00\x00\x00\x00:@\x00\x00\x00\x00\x00\x004@\xecQ\xb8\x1e\x85\xeb\xd1?\xcd\xcc\xcc\xcc\xcc\xcc\xdc?\x00\x00\x00\x00\x00\x00\x1a@\x00\x00\x00\x00\x00\x80A@\x00\x00\x00\x00\x00\x004@\x00\x00\x00\x00\x00\x00<@\x00\x00\x00\x00\x00\x006@\x00\x00\x00\x00\x00\x00\xd0?\x9a\x99\x99\x99\x99\x99\xd9?\x00\x00\x00\x00\x00\x00(@\x00\x00\x00\x00\x00\x00I@\x00\x00\x00\x00\x00\x804@\x00\x00\x00\x00\x00\x00@@\x00\x00\x00\x00\x00\x009@)\\\x8f\xc2\xf5(\xcc?ffffff\xd6?\x00\x00\x00\x00\x00\x004@\x00\x00\x00\x00\x00\x80K@\x00\x00\x00\x00\x00\x005@\x00\x00\x00\x00\x00\x80A@\x00\x00\x00\x00\x00\x80A@\x00\x00\x00\x00\x00\x00\xd0?ffffff\xd6?\x00\x00\x00\x00\x00\x00>@\x00\x00\x00\x00\x00@P@\x00\x00\x00\x00\x00\x802@\x00\x00\x00\x00\x00\x804@\x00\x00\x00\x00\x00\x002@333333\xd3?\xcd\xcc\xcc\xcc\xcc\xcc\xdc?\x00\x00\x00\x00\x00\x00\xe0?\x00\x00\x00\x00\x00\x006@\x00\x00\x00\x00\x00\x802@\x00\x00\x00\x00\x00\x806@\x00\x00\x00\x00\x00\x004@\xecQ\xb8\x1e\x85\xeb\xd1?\x9a\x99\x99\x99\x99\x99\xe1?\x00\x00\x00\x00\x00\x00\xe0?\x00\x00\x00\x00\x00\x00<@\x00\x00\x00\x00\x00\x803@\x00\x00\x00\x00\x00\x009@\x00\x00\x00\x00\x00\x00D@\x00\x00\x00\x00\x00\x00\xd0?\x00\x00\x00\x00\x00\x00\x00\x00\x9a\x99\x99\x99\x99\x99\xe9?\x00\x00\x00\x00\x00\x80F@\x00\x00\x00\x00\x00\x804@\x00\x00\x00\x00\x00\x80;@\x00\x00\x00\x00\x00\x80V@\x00\x00\x00\x00\x00\x00\xd0?\x00\x00\x00\x00\x00\x00\x00\x00\x00\x00\x00\x00\x00\x00\x04@\x00\x00\x00\x00\x00\x00N@\x00\x00\x00\x00\x00\x806@\x00\x00\x00\x00\x00\x80F@\x00\x00\x00\x00\x00\x88\xc3@\x00\x00\x00\x00\x00\x00\xd0?\x00\x00\x00\x00\x00\x00\x00\x00\x00\x00\x00\x00\x00\x00.@\x00\x00\x00\x00\x00@_@\x00\x00\x00\x00\x00\x808@\x00\x00\x00\x00\x00\x80K@\x00\x00\x00\x00\x00\x88\xc3@\x00\x00\x00\x00\x00\x00\xd0?\x00\x00\x00\x00\x00\x00\x00\x00\x00\x00\x00\x00\x00\x00\xf8?\x00\x00\x00\x00\x00\xc0w@\x00\x00\x00\x00\x00\x803@\x00\x00\x00\x00\x00\x00;@\x00\x00\x00\x00\x00\x00D@\x00\x00\x00\x00\x00\x00\xd0?\x00\x00\x00\x00\x00\x00\x00\x00\x00\x00\x00\x00\x00\x00\xf0?\x00\x00\x00\x00\x00\x80F@\x00\x00\x00\x00\x00\x804@\x00\x00\x00\x00\x00\x00>@\x00\x00\x00\x00\x00\x80V@\x00\x00\x00\x00\x00\x00\xd0?\x00\x00\x00\x00\x00\x00\x00\x00\x00\x00\x00\x00\x00\x00\x04@\x00\x00\x00\x00\x00\x00N@\x00\x00\x00\x00\x00\x806@\x00\x00\x00\x00\x00\x80F@\x00\x00\x00\x00\x00\x88\xc3@\x00\x00\x00\x00\x00\x00\xd0?\x00\x00\x00\x00\x00\x00\x00\x00\x00\x00\x00\x00\x00\x00.@\x00\x00\x00\x00\x00@_@\x00\x00\x00\x00\x00\x808@\x00\x00\x00\x00\x00\x80K@\x00\x00\x00\x00\x00\x88\xc3@)\\\x8f\xc2\xf5(\xcc?\x00\x00\x00\x00\x00\x00\x00\x00\x00\x00\x00\x00\x00\x00\xf8?\x00\x00\x00\x00\x00\xc0w@\x00\x00\x00\x00\x00\x80:@\x00\x00\x00\x00\x00\x80Q@\x00\x00\x00\x00\x00\x88\xc3@\n\xd7\xa3p=\n\xc7?\x00\x00\x00\x00\x00\x00\x00\x00\x00\x00\x00\x00\x00\x00\xe0?\x00\x00\x00\x00\x00P\x84@'
p84
tp85
bag20
(g21
(I0
tp86
g23
tp87
Rp88
(I1
(I1
I7
tp89
g30
I00
(lp90
S'Y3'
p91
aS'FI3'
p92
aS'EM3(\xe5\x8e\x8b\xe7\xbc\xa9\xe6\xa8\xa1\xe9\x87\x8f)'
p93
aS'P3(\xe6\xb3\x8a\xe6\x9d\xbe\xe6\xaf\x94)'
p94
aS'SITA3'
p95
aS'K3'
p96
aS'FRB3'
p97
atp98
ba(lp99
g16
(g17
(dp100
g19
g20
(g21
(I0
tp101
g23
tp102
Rp103
(I1
(I20
tp104
g30
I00
(lp105
g35
ag36
ag37
ag38
ag39
ag40
ag41
ag42
ag43
ag44
ag45
ag46
ag47
ag48
ag49
ag50
ag51
ag52
ag53
ag54
atp106
bsg56
Nstp107
Rp108
ag16
(g17
(dp109
g19
g20
(g21
(I0
tp110
g23
tp111
Rp112
(I1
(I1
tp113
g30
I00
(lp114
g34
atp115
bsg56
Nstp116
Rp117
a(dp118
S'0.14.1'
p119
(dp120
S'axes'
p121
g15
sS'blocks'
p122
(lp123
(dp124
S'mgr_locs'
p125
c__builtin__
slice
p126
(I1
I21
I1
tp127
Rp128
sS'values'
p129
g77
sa(dp130
g125
g126
(I0
I1
I1
tp131
Rp132
sg129
g88
sasstp133
bsba(lp134
(i__main__
GeoRecord
p135
(dp136
S'thick'
p137
(lp138
F4.82
aF7.5
aF17.68
asS'types'
p139
(lp140
S'4-4'
p141
aS'4-5'
p142
aS'7-2-1'
p143
asS'no'
p144
S'085'
p145
sba(i__main__
GeoRecord
p146
(dp147
g137
(lp148
F7.15
aF7.0
aF10.98
aF4.87
asg139
(lp149
S'4-4'
p150
aS'4-1'
p151
aS'7-2-2'
p152
aS'2-1'
p153
asg144
S'119'
p154
sba(i__main__
GeoRecord
p155
(dp156
g137
(lp157
F7.74
aF5.5
aF3.52
aF7.02
aF6.22
asg139
(lp158
S'4-4'
p159
aS'4-1'
p160
aS'7-2-2'
p161
aS'2-1'
p162
aS'2-2-1'
p163
asg144
S'130'
p164
sba(i__main__
GeoRecord
p165
(dp166
g137
(lp167
F8.13
aF4.5
aF15.46
aF1.91
asg139
(lp168
S'4-4'
p169
aS'4-1'
p170
aS'7-2-2'
p171
aS'2-1'
p172
asg144
S'141'
p173
sba(i__main__
GeoRecord
p174
(dp175
g137
(lp176
F2.07
aF21.51
aF6.42
asg139
(lp177
S'4-2'
p178
aS'7-2-2'
p179
aS'2-1'
p180
asg144
S'152'
p181
sba(i__main__
GeoRecord
p182
(dp183
g137
(lp184
F1.0
aF21.96
aF7.04
asg139
(lp185
S'4-1'
p186
aS'7-2-2'
p187
aS'2-1'
p188
asg144
S'160'
p189
sba(i__main__
GeoRecord
p190
(dp191
g137
(lp192
F1.4
aF6.98
aF8.12
aF13.5
asg139
(lp193
S'2-3'
p194
aS'2-4'
p195
aS'7-2-2'
p196
aS'2-1'
p197
asg144
S'173'
p198
sba(i__main__
GeoRecord
p199
(dp200
g137
(lp201
F7.58
aF7.08
aF15.34
asg139
(lp202
S'2-3'
p203
aS'7-2-1'
p204
aS'7-2-2'
p205
asg144
S'185'
p206
sba(i__main__
GeoRecord
p207
(dp208
g137
(lp209
F3.18
aF3.52
aF23.3
asg139
(lp210
S'2-3'
p211
aS'4-2'
p212
aS'7-2-1'
p213
asg144
S'206'
p214
sba(i__main__
GeoRecord
p215
(dp216
g137
(lp217
F0.27
aF26.0
aF3.73
asg139
(lp218
S'4-2'
p219
aS'7-2-1'
p220
aS'7-2-2'
p221
asg144
S'215'
p222
sba(i__main__
GeoRecord
p223
(dp224
g137
(lp225
F0.49
aF17.45
aF12.06
asg139
(lp226
S'4-2'
p227
aS'4-1'
p228
aS'7-2-2'
p229
asg144
S'227'
p230
sba(i__main__
GeoRecord
p231
(dp232
g137
(lp233
F2.39
aF27.61
asg139
(lp234
S'4-2'
p235
aS'7-2-2'
p236
asg144
S'238'
p237
sba(i__main__
GeoRecord
p238
(dp239
g137
(lp240
F4.04
aF8.5
aF6.51
aF10.95
asg139
(lp241
S'4-2'
p242
aS'7-2-2'
p243
aS'2-1'
p244
aS'2-2-1'
p245
asg144
S'250'
p246
sba(i__main__
GeoRecord
p247
(dp248
g137
(lp249
F8.08
aF9.5
aF12.42
asg139
(lp250
S'7-2-2'
p251
aS'2-1'
p252
aS'2-2-1'
p253
asg144
S'260'
p254
sba(i__main__
GeoRecord
p255
(dp256
g137
(lp257
F13.09
aF9.0
aF7.91
asg139
(lp258
S'7-2-2'
p259
aS'2-1'
p260
aS'2-2-1'
p261
asg144
S'272'
p262
sba(i__main__
GeoRecord
p263
(dp264
g137
(lp265
F9.73
aF8.0
aF12.27
asg139
(lp266
S'7-2-2'
p267
aS'2-1'
p268
aS'2-2-1'
p269
asg144
S'282'
p270
sba(i__main__
GeoRecord
p271
(dp272
g137
(lp273
F3.2
aF9.31
aF17.49
asg139
(lp274
S'7-2-2'
p275
aS'2-1'
p276
aS'2-2-1'
p277
asg144
S'293'
p278
sba(i__main__
GeoRecord
p279
(dp280
g137
(lp281
F6.38
aF8.99
aF14.63
asg139
(lp282
S'2-1'
p283
aS'2-2-1'
p284
aS'2-3'
p285
asg144
S'530'
p286
sba(i__main__
GeoRecord
p287
(dp288
g137
(lp289
F7.48
aF15.05
aF7.47
asg139
(lp290
S'7-2-1'
p291
aS'2-1'
p292
aS'2-2-1'
p293
asg144
S'541'
p294
sba(i__main__
GeoRecord
p295
(dp296
g137
(lp297
F27.32
aF2.68
asg139
(lp298
S'7-2-1'
p299
aS'7-2-2'
p300
asg144
S'552'
p301
sba(i__main__
GeoRecord
p302
(dp303
g137
(lp304
F30.0
asg139
(lp305
S'2-1'
p306
asg144
S'563'
p307
sba(i__main__
GeoRecord
p308
(dp309
g137
(lp310
F30.0
asg139
(lp311
S'7-2-1'
p312
asg144
S'586'
p313
sba(i__main__
GeoRecord
p314
(dp315
g137
(lp316
F7.8
aF22.2
asg139
(lp317
S'7-2-1'
p318
aS'7-2-2'
p319
asg144
S'596'
p320
sba(i__main__
GeoRecord
p321
(dp322
g137
(lp323
F24.48
aF5.52
asg139
(lp324
S'7-2-2'
p325
aS'9-1'
p326
asg144
S'608'
p327
sba(i__main__
GeoRecord
p328
(dp329
g137
(lp330
F30.0
asg139
(lp331
S'7-2-2'
p332
asg144
S'635'
p333
sba(i__main__
GeoRecord
p334
(dp335
g137
(lp336
F4.8
aF25.2
asg139
(lp337
S'7-2-1'
p338
aS'7-2-2'
p339
asg144
S'651'
p340
sba(i__main__
GeoRecord
p341
(dp342
g137
(lp343
F30.0
asg139
(lp344
S'7-2-2'
p345
asg144
S'663'
p346
sba(i__main__
GeoRecord
p347
(dp348
g137
(lp349
F16.98
aF13.02
asg139
(lp350
S'7-2-1'
p351
aS'7-2-2'
p352
asg144
S'674'
p353
sba(i__main__
GeoRecord
p354
(dp355
g137
(lp356
F3.49
aF26.51
asg139
(lp357
S'4-2'
p358
aS'7-2-1'
p359
asg144
S'686'
p360
sba(i__main__
GeoRecord
p361
(dp362
g137
(lp363
F1.6
aF23.94
aF4.46
asg139
(lp364
S'4-9'
p365
aS'7-2-1'
p366
aS'7-2-2'
p367
asg144
S'697'
p368
sba(i__main__
GeoRecord
p369
(dp370
g137
(lp371
F2.82
aF3.53
aF18.98
aF4.67
asg139
(lp372
S'4-9'
p373
aS'7-2-1'
p374
aS'7-2-2'
p375
aS'9-1'
p376
asg144
S'709'
p377
sba(i__main__
GeoRecord
p378
(dp379
g137
(lp380
F11.21
aF18.79
asg139
(lp381
S'7-2-1'
p382
aS'9-1'
p383
asg144
S'721'
p384
sba(i__main__
GeoRecord
p385
(dp386
g137
(lp387
F6.23
aF12.52
aF11.25
asg139
(lp388
S'7-2-1'
p389
aS'7-2-2'
p390
aS'9-1'
p391
asg144
S'733'
p392
sba(i__main__
GeoRecord
p393
(dp394
g137
(lp395
F0.84
aF19.98
aF9.18
asg139
(lp396
S'7-2-1'
p397
aS'7-2-2'
p398
aS'9-1'
p399
asg144
S'744'
p400
sba(i__main__
GeoRecord
p401
(dp402
g137
(lp403
F2.37
aF22.5
aF5.13
asg139
(lp404
S'7-2-1'
p405
aS'7-2-2'
p406
aS'9-1'
p407
asg144
S'756'
p408
sba(i__main__
GeoRecord
p409
(dp410
g137
(lp411
F19.68
aF10.32
asg139
(lp412
S'7-2-2'
p413
aS'9-1'
p414
asg144
S'768'
p415
sba(i__main__
GeoRecord
p416
(dp417
g137
(lp418
F5.54
aF8.09
aF16.37
asg139
(lp419
S'7-2-1'
p420
aS'7-2-2'
p421
aS'9-1'
p422
asg144
S'779'
p423
sba(i__main__
GeoRecord
p424
(dp425
g137
(lp426
F3.14
aF26.86
asg139
(lp427
S'7-2-1'
p428
aS'7-2-2'
p429
asg144
S'789'
p430
sba(i__main__
GeoRecord
p431
(dp432
g137
(lp433
F7.7
aF20.51
aF1.79
asg139
(lp434
S'7-2-1'
p435
aS'7-2-2'
p436
aS'9-1'
p437
asg144
S'801'
p438
sba(i__main__
GeoRecord
p439
(dp440
g137
(lp441
F3.31
aF23.99
aF2.7
asg139
(lp442
S'7-2-1'
p443
aS'7-2-2'
p444
aS'9-1'
p445
asg144
S'812'
p446
sba(i__main__
GeoRecord
p447
(dp448
g137
(lp449
F19.06
aF10.94
asg139
(lp450
S'7-2-2'
p451
aS'9-1'
p452
asg144
S'824'
p453
sba(i__main__
GeoRecord
p454
(dp455
g137
(lp456
F27.84
aF2.16
asg139
(lp457
S'7-2-2'
p458
aS'9-1'
p459
asg144
S'836'
p460
sba(i__main__
GeoRecord
p461
(dp462
g137
(lp463
F30.0
asg139
(lp464
S'7-2-2'
p465
asg144
S'848'
p466
sba(i__main__
GeoRecord
p467
(dp468
g137
(lp469
F8.54
aF21.46
asg139
(lp470
S'7-2-2'
p471
aS'9-1'
p472
asg144
S'861'
p473
sba(i__main__
GeoRecord
p474
(dp475
g137
(lp476
F0.56
aF25.97
aF3.47
asg139
(lp477
S'7-2-1'
p478
aS'7-2-2'
p479
aS'9-1'
p480
asg144
S'871'
p481
sba(i__main__
GeoRecord
p482
(dp483
g137
(lp484
F1.11
aF20.46
aF8.43
asg139
(lp485
S'7-2-2'
p486
aS'9-1'
p487
aS'9-2-1'
p488
asg144
S'883'
p489
sba(i__main__
GeoRecord
p490
(dp491
g137
(lp492
F2.79
aF25.37
aF1.84
asg139
(lp493
S'9-1'
p494
aS'9-2-1'
p495
aS'9-3'
p496
asg144
S'897'
p497
sba(i__main__
GeoRecord
p498
(dp499
g137
(lp500
F14.21
aF15.79
asg139
(lp501
S'9-1'
p502
aS'9-2-1'
p503
asg144
S'909'
p504
sba(i__main__
GeoRecord
p505
(dp506
g137
(lp507
F22.87
aF7.13
asg139
(lp508
S'9-1'
p509
aS'9-2-1'
p510
asg144
S'916'
p511
sba(i__main__
GeoRecord
p512
(dp513
g137
(lp514
F6.97
aF22.54
aF0.49
asg139
(lp515
S'9-1'
p516
aS'9-2-1'
p517
aS'9-3'
p518
asg144
S'927'
p519
sba(i__main__
GeoRecord
p520
(dp521
g137
(lp522
F18.58
aF11.42
asg139
(lp523
S'9-1'
p524
aS'9-2-1'
p525
asg144
S'940'
p526
sba(i__main__
GeoRecord
p527
(dp528
g137
(lp529
F30.0
asg139
(lp530
S'7-2-2'
p531
asg144
S'947'
p532
sba(i__main__
GeoRecord
p533
(dp534
g137
(lp535
F2.23
aF27.77
asg139
(lp536
S'7-2-2'
p537
aS'9-1'
p538
asg144
S'956'
p539
sba(i__main__
GeoRecord
p540
(dp541
g137
(lp542
F3.74
aF26.26
asg139
(lp543
S'9-1'
p544
aS'9-2-1'
p545
asg144
S'965'
p546
sba(i__main__
GeoRecord
p547
(dp548
g137
(lp549
F27.0
aF3.0
asg139
(lp550
S'7-2-2'
p551
aS'9-1'
p552
asg144
S'976'
p553
sba(i__main__
GeoRecord
p554
(dp555
g137
(lp556
F30.0
asg139
(lp557
S'7-2-2'
p558
asg144
S'986'
p559
sba(i__main__
GeoRecord
p560
(dp561
g137
(lp562
F30.0
asg139
(lp563
S'7-2-2'
p564
asg144
S'995'
p565
sba(i__main__
GeoRecord
p566
(dp567
g137
(lp568
F30.0
asg139
(lp569
S'7-2-2'
p570
asg144
S'1018'
p571
sba(i__main__
GeoRecord
p572
(dp573
g137
(lp574
F8.42
aF21.58
asg139
(lp575
S'7-2-1'
p576
aS'7-2-2'
p577
asg144
S'1026'
p578
sba(i__main__
GeoRecord
p579
(dp580
g137
(lp581
F11.6
aF18.4
asg139
(lp582
S'7-2-1'
p583
aS'7-2-2'
p584
asg144
S'1036'
p585
sba(i__main__
GeoRecord
p586
(dp587
g137
(lp588
F30.0
asg139
(lp589
S'7-2-2'
p590
asg144
S'1046'
p591
sba(i__main__
GeoRecord
p592
(dp593
g137
(lp594
F0.75
aF28.99
aF0.26
asg139
(lp595
S'7-2-1'
p596
aS'7-2-2'
p597
aS'9-1'
p598
asg144
S'1050'
p599
sba(i__main__
GeoRecord
p600
(dp601
g137
(lp602
F19.58
aF10.42
asg139
(lp603
S'7-2-1'
p604
aS'7-2-2'
p605
asg144
S'1061'
p606
sba(i__main__
GeoRecord
p607
(dp608
g137
(lp609
F4.93
aF5.45
aF19.62
asg139
(lp610
S'4-2'
p611
aS'7-2-1'
p612
aS'7-2-2'
p613
asg144
S'1072'
p614
sba(i__main__
GeoRecord
p615
(dp616
g137
(lp617
F8.92
aF9.97
aF5.04
aF6.07
asg139
(lp618
S'4-2'
p619
aS'4-1'
p620
aS'7-2-2'
p621
aS'9-1'
p622
asg144
S'1080'
p623
sba(i__main__
GeoRecord
p624
(dp625
g137
(lp626
F8.63
aF4.05
aF17.32
asg139
(lp627
S'4-2'
p628
aS'4-1'
p629
aS'7-2-2'
p630
asg144
S'1091'
p631
sba(i__main__
GeoRecord
p632
(dp633
g137
(lp634
F4.95
aF10.53
aF14.52
asg139
(lp635
S'4-2'
p636
aS'4-1'
p637
aS'7-2-2'
p638
asg144
S'1102'
p639
sba(i__main__
GeoRecord
p640
(dp641
g137
(lp642
F3.06
aF8.22
aF15.4
aF3.32
asg139
(lp643
S'4-4'
p644
aS'4-2'
p645
aS'4-1'
p646
aS'7-2-2'
p647
asg144
S'1112'
p648
sba(i__main__
GeoRecord
p649
(dp650
g137
(lp651
F12.56
aF17.44
asg139
(lp652
S'7-2-2'
p653
aS'9-1'
p654
asg144
S'1122'
p655
sba(i__main__
GeoRecord
p656
(dp657
g137
(lp658
F0.3
aF11.92
aF17.78
asg139
(lp659
S'4-4'
p660
aS'7-2-1'
p661
aS'7-2-2'
p662
asg144
S'1131'
p663
sba(i__main__
GeoRecord
p664
(dp665
g137
(lp666
F5.84
aF24.16
asg139
(lp667
S'4-4'
p668
aS'7-2-1'
p669
asg144
S'1142'
p670
sba(i__main__
GeoRecord
p671
(dp672
g137
(lp673
F7.52
aF8.0
aF14.58
asg139
(lp674
S'4-4'
p675
aS'4-1'
p676
aS'7-2-1'
p677
asg144
S'1150'
p678
sba(i__main__
GeoRecord
p679
(dp680
g137
(lp681
F8.4
aF6.07
aF15.53
asg139
(lp682
S'4-2'
p683
aS'4-1'
p684
aS'7-2-1'
p685
asg144
S'1162'
p686
sba(i__main__
GeoRecord
p687
(dp688
g137
(lp689
F16.98
aF10.62
aF2.4
asg139
(lp690
S'4-4'
p691
aS'7-2-1'
p692
aS'7-2-2'
p693
asg144
S'1175'
p694
sba(i__main__
GeoRecord
p695
(dp696
g137
(lp697
F7.19
aF6.51
aF10.51
aF5.79
asg139
(lp698
S'4-2'
p699
aS'4-4'
p700
aS'4-1'
p701
aS'7-2-1'
p702
asg144
S'1187'
p703
sba(i__main__
GeoRecord
p704
(dp705
g137
(lp706
F4.97
aF7.0
aF11.5
aF6.53
asg139
(lp707
S'4-2'
p708
aS'4-4'
p709
aS'4-1'
p710
aS'7-2-1'
p711
asg144
S'1196'
p712
sba(i__main__
GeoRecord
p713
(dp714
g137
(lp715
F26.75
aF3.25
asg139
(lp716
S'1-8'
p717
aS'7-2-1'
p718
asg144
S'1206'
p719
sba(i__main__
GeoRecord
p720
(dp721
g137
(lp722
F17.1
aF12.9
asg139
(lp723
S'4-1'
p724
aS'7-2-1'
p725
asg144
S'1222'
p726
sba(i__main__
GeoRecord
p727
(dp728
g137
(lp729
F1.28
aF5.94
aF20.53
aF2.25
asg139
(lp730
S'2-3'
p731
aS'4-2'
p732
aS'4-1'
p733
aS'7-2-1'
p734
asg144
S'1229'
p735
sba(i__main__
GeoRecord
p736
(dp737
g137
(lp738
F0.33
aF17.49
aF9.01
aF3.17
asg139
(lp739
S'2-3'
p740
aS'4-2'
p741
aS'4-1'
p742
aS'7-2-1'
p743
asg144
S'1242'
p744
sba(i__main__
GeoRecord
p745
(dp746
g137
(lp747
F1.11
aF14.51
aF13.99
aF0.39
asg139
(lp748
S'2-3'
p749
aS'4-2'
p750
aS'4-1'
p751
aS'7-2-1'
p752
asg144
S'1260'
p753
sba(i__main__
GeoRecord
p754
(dp755
g137
(lp756
F3.41
aF20.49
aF6.1
asg139
(lp757
S'2-3'
p758
aS'4-2'
p759
aS'4-1'
p760
asg144
S'1275'
p761
sba(i__main__
GeoRecord
p762
(dp763
g137
(lp764
F9.79
aF16.54
aF3.67
asg139
(lp765
S'2-3'
p766
aS'4-2'
p767
aS'7-2-1'
p768
asg144
S'1290'
p769
sba(i__main__
GeoRecord
p770
(dp771
g137
(lp772
F12.78
aF11.0
aF6.3
asg139
(lp773
S'2-3'
p774
aS'4-2'
p775
aS'7-2-1'
p776
asg144
S'1298'
p777
sba(i__main__
GeoRecord
p778
(dp779
g137
(lp780
F12.47
aF9.94
aF7.59
asg139
(lp781
S'2-3'
p782
aS'4-2'
p783
aS'7-2-2'
p784
asg144
S'1307'
p785
sba(i__main__
GeoRecord
p786
(dp787
g137
(lp788
F13.14
aF5.09
aF11.77
asg139
(lp789
S'2-3'
p790
aS'9-1'
p791
aS'9-2-1'
p792
asg144
S'1322'
p793
sba(i__main__
GeoRecord
p794
(dp795
g137
(lp796
F14.82
aF13.46
aF1.72
asg139
(lp797
S'2-3'
p798
aS'7-2-2'
p799
aS'9-1'
p800
asg144
S'1332'
p801
sba(i__main__
GeoRecord
p802
(dp803
g137
(lp804
F30.0
asg139
(lp805
S'2-3'
p806
asg144
S'1345'
p807
sbaa.